target datalayout = "e-m:e-p270:32:32-p271:32:32-p272:64:64-i64:64-i128:128-f80:128-n8:16:32:64-S128"
target triple = "x86_64-unknown-linux-gnu"

; Function Attrs: mustprogress uwtable
define internal noundef zeroext i1 @_ZN9grpc_core12_GLOBAL__N_110JsonReader14StringAddUtf32Ej(ptr noundef nonnull align 8 dereferenceable(216) %this, i32 noundef %c) #4 align 2 {
entry:
  %retval = alloca i1, align 1
  %this.addr = alloca ptr, align 8
  %c.addr = alloca i32, align 4
  %b1 = alloca i32, align 4
  %b2 = alloca i32, align 4
  %b111 = alloca i32, align 4
  %b215 = alloca i32, align 4
  %b3 = alloca i32, align 4
  %b129 = alloca i32, align 4
  %b233 = alloca i32, align 4
  %b337 = alloca i32, align 4
  %b4 = alloca i32, align 4
  store ptr %this, ptr %this.addr, align 8
  store i32 %c, ptr %c.addr, align 4
  %this1 = load ptr, ptr %this.addr, align 8
  %0 = load i32, ptr %c.addr, align 4
  %cmp = icmp ule i32 %0, 127
  br i1 %cmp, label %if.then, label %if.else

if.then:                                          ; preds = %entry
  %1 = load i32, ptr %c.addr, align 4
  %call = call noundef zeroext i1 @_ZN9grpc_core12_GLOBAL__N_110JsonReader13StringAddCharEj(ptr noundef nonnull align 8 dereferenceable(216) %this1, i32 noundef %1)
  store i1 %call, ptr %retval, align 1
  br label %return

if.else:                                          ; preds = %entry
  %2 = load i32, ptr %c.addr, align 4
  %cmp2 = icmp ule i32 %2, 2047
  br i1 %cmp2, label %if.then3, label %if.else8

if.then3:                                         ; preds = %if.else
  %3 = load i32, ptr %c.addr, align 4
  %shr = lshr i32 %3, 6
  %and = and i32 %shr, 31
  %or = or i32 192, %and
  store i32 %or, ptr %b1, align 4
  %4 = load i32, ptr %c.addr, align 4
  %and4 = and i32 %4, 63
  %or5 = or i32 128, %and4
  store i32 %or5, ptr %b2, align 4
  %5 = load i32, ptr %b1, align 4
  %call6 = call noundef zeroext i1 @_ZN9grpc_core12_GLOBAL__N_110JsonReader13StringAddCharEj(ptr noundef nonnull align 8 dereferenceable(216) %this1, i32 noundef %5)
  br i1 %call6, label %land.rhs, label %land.end

land.rhs:                                         ; preds = %if.then3
  %6 = load i32, ptr %b2, align 4
  %call7 = call noundef zeroext i1 @_ZN9grpc_core12_GLOBAL__N_110JsonReader13StringAddCharEj(ptr noundef nonnull align 8 dereferenceable(216) %this1, i32 noundef %6)
  br label %land.end

land.end:                                         ; preds = %land.rhs, %if.then3
  %7 = phi i1 [ false, %if.then3 ], [ %call7, %land.rhs ]
  store i1 %7, ptr %retval, align 1
  br label %return

if.else8:                                         ; preds = %if.else
  %8 = load i32, ptr %c.addr, align 4
  %cmp9 = icmp ule i32 %8, 65535
  br i1 %cmp9, label %if.then10, label %if.else26

if.then10:                                        ; preds = %if.else8
  %9 = load i32, ptr %c.addr, align 4
  %shr12 = lshr i32 %9, 12
  %and13 = and i32 %shr12, 15
  %or14 = or i32 224, %and13
  store i32 %or14, ptr %b111, align 4
  %10 = load i32, ptr %c.addr, align 4
  %shr16 = lshr i32 %10, 6
  %and17 = and i32 %shr16, 63
  %or18 = or i32 128, %and17
  store i32 %or18, ptr %b215, align 4
  %11 = load i32, ptr %c.addr, align 4
  %and19 = and i32 %11, 63
  %or20 = or i32 128, %and19
  store i32 %or20, ptr %b3, align 4
  %12 = load i32, ptr %b111, align 4
  %call21 = call noundef zeroext i1 @_ZN9grpc_core12_GLOBAL__N_110JsonReader13StringAddCharEj(ptr noundef nonnull align 8 dereferenceable(216) %this1, i32 noundef %12)
  br i1 %call21, label %land.lhs.true, label %land.end25

land.lhs.true:                                    ; preds = %if.then10
  %13 = load i32, ptr %b215, align 4
  %call22 = call noundef zeroext i1 @_ZN9grpc_core12_GLOBAL__N_110JsonReader13StringAddCharEj(ptr noundef nonnull align 8 dereferenceable(216) %this1, i32 noundef %13)
  br i1 %call22, label %land.rhs23, label %land.end25

land.rhs23:                                       ; preds = %land.lhs.true
  %14 = load i32, ptr %b3, align 4
  %call24 = call noundef zeroext i1 @_ZN9grpc_core12_GLOBAL__N_110JsonReader13StringAddCharEj(ptr noundef nonnull align 8 dereferenceable(216) %this1, i32 noundef %14)
  br label %land.end25

land.end25:                                       ; preds = %land.rhs23, %land.lhs.true, %if.then10
  %15 = phi i1 [ false, %land.lhs.true ], [ false, %if.then10 ], [ %call24, %land.rhs23 ]
  store i1 %15, ptr %retval, align 1
  br label %return

if.else26:                                        ; preds = %if.else8
  %16 = load i32, ptr %c.addr, align 4
  %cmp27 = icmp ule i32 %16, 2097151
  br i1 %cmp27, label %if.then28, label %if.else51

if.then28:                                        ; preds = %if.else26
  %17 = load i32, ptr %c.addr, align 4
  %shr30 = lshr i32 %17, 18
  %and31 = and i32 %shr30, 7
  %or32 = or i32 240, %and31
  store i32 %or32, ptr %b129, align 4
  %18 = load i32, ptr %c.addr, align 4
  %shr34 = lshr i32 %18, 12
  %and35 = and i32 %shr34, 63
  %or36 = or i32 128, %and35
  store i32 %or36, ptr %b233, align 4
  %19 = load i32, ptr %c.addr, align 4
  %shr38 = lshr i32 %19, 6
  %and39 = and i32 %shr38, 63
  %or40 = or i32 128, %and39
  store i32 %or40, ptr %b337, align 4
  %20 = load i32, ptr %c.addr, align 4
  %and41 = and i32 %20, 63
  %or42 = or i32 128, %and41
  store i32 %or42, ptr %b4, align 4
  %21 = load i32, ptr %b129, align 4
  %call43 = call noundef zeroext i1 @_ZN9grpc_core12_GLOBAL__N_110JsonReader13StringAddCharEj(ptr noundef nonnull align 8 dereferenceable(216) %this1, i32 noundef %21)
  br i1 %call43, label %land.lhs.true44, label %land.end50

land.lhs.true44:                                  ; preds = %if.then28
  %22 = load i32, ptr %b233, align 4
  %call45 = call noundef zeroext i1 @_ZN9grpc_core12_GLOBAL__N_110JsonReader13StringAddCharEj(ptr noundef nonnull align 8 dereferenceable(216) %this1, i32 noundef %22)
  br i1 %call45, label %land.lhs.true46, label %land.end50

land.lhs.true46:                                  ; preds = %land.lhs.true44
  %23 = load i32, ptr %b337, align 4
  %call47 = call noundef zeroext i1 @_ZN9grpc_core12_GLOBAL__N_110JsonReader13StringAddCharEj(ptr noundef nonnull align 8 dereferenceable(216) %this1, i32 noundef %23)
  br i1 %call47, label %land.rhs48, label %land.end50

land.rhs48:                                       ; preds = %land.lhs.true46
  %24 = load i32, ptr %b4, align 4
  %call49 = call noundef zeroext i1 @_ZN9grpc_core12_GLOBAL__N_110JsonReader13StringAddCharEj(ptr noundef nonnull align 8 dereferenceable(216) %this1, i32 noundef %24)
  br label %land.end50

land.end50:                                       ; preds = %land.rhs48, %land.lhs.true46, %land.lhs.true44, %if.then28
  %25 = phi i1 [ false, %land.lhs.true46 ], [ false, %land.lhs.true44 ], [ false, %if.then28 ], [ %call49, %land.rhs48 ]
  store i1 %25, ptr %retval, align 1
  br label %return

if.else51:                                        ; preds = %if.else26
  store i1 false, ptr %retval, align 1
  br label %return

return:                                           ; preds = %if.else51, %land.end50, %land.end25, %land.end, %if.then
  %26 = load i1, ptr %retval, align 1
  ret i1 %26
}