; Function Attrs: mustprogress uwtable
define internal fastcc noundef zeroext i1 @_ZN9grpc_core12_GLOBAL__N_110JsonReader14StringAddUtf32Ej(ptr noundef nonnull align 8 dereferenceable(216) %this, i32 noundef %c) unnamed_addr #3 align 2 {
entry:
  %cmp = icmp ult i32 %c, 128
  br i1 %cmp, label %return.sink.split, label %if.else

if.else:                                          ; preds = %entry
  %cmp2 = icmp ult i32 %c, 2048
  br i1 %cmp2, label %if.then3, label %if.else8

if.then3:                                         ; preds = %if.else
  %shr = lshr i32 %c, 6
  %or = or disjoint i32 %shr, 192
  %call6 = tail call fastcc noundef zeroext i1 @_ZN9grpc_core12_GLOBAL__N_110JsonReader13StringAddCharEj(ptr noundef nonnull align 8 dereferenceable(216) %this, i32 noundef %or)
  br i1 %call6, label %land.rhs, label %return

land.rhs:                                         ; preds = %if.then3
  %and4 = and i32 %c, 63
  %or5 = or disjoint i32 %and4, 128
  br label %return.sink.split

if.else8:                                         ; preds = %if.else
  %cmp9 = icmp ult i32 %c, 65536
  br i1 %cmp9, label %if.then10, label %if.else26

if.then10:                                        ; preds = %if.else8
  %shr12 = lshr i32 %c, 12
  %or14 = or disjoint i32 %shr12, 224
  %call21 = tail call fastcc noundef zeroext i1 @_ZN9grpc_core12_GLOBAL__N_110JsonReader13StringAddCharEj(ptr noundef nonnull align 8 dereferenceable(216) %this, i32 noundef %or14)
  br i1 %call21, label %land.lhs.true, label %return

land.lhs.true:                                    ; preds = %if.then10
  %and19 = and i32 %c, 63
  %or20 = or disjoint i32 %and19, 128
  %shr16 = lshr i32 %c, 6
  %and17 = and i32 %shr16, 63
  %or18 = or disjoint i32 %and17, 128
  %call22 = tail call fastcc noundef zeroext i1 @_ZN9grpc_core12_GLOBAL__N_110JsonReader13StringAddCharEj(ptr noundef nonnull align 8 dereferenceable(216) %this, i32 noundef %or18)
  br i1 %call22, label %return.sink.split, label %return

if.else26:                                        ; preds = %if.else8
  %cmp27 = icmp ult i32 %c, 2097152
  br i1 %cmp27, label %if.then28, label %return

if.then28:                                        ; preds = %if.else26
  %shr30 = lshr i32 %c, 18
  %or32 = or disjoint i32 %shr30, 240
  %shr38 = lshr i32 %c, 6
  %and39 = and i32 %shr38, 63
  %or40 = or disjoint i32 %and39, 128
  %and41 = and i32 %c, 63
  %or42 = or disjoint i32 %and41, 128
  %call43 = tail call fastcc noundef zeroext i1 @_ZN9grpc_core12_GLOBAL__N_110JsonReader13StringAddCharEj(ptr noundef nonnull align 8 dereferenceable(216) %this, i32 noundef %or32)
  br i1 %call43, label %land.lhs.true44, label %return

land.lhs.true44:                                  ; preds = %if.then28
  %shr34 = lshr i32 %c, 12
  %and35 = and i32 %shr34, 63
  %or36 = or disjoint i32 %and35, 128
  %call45 = tail call fastcc noundef zeroext i1 @_ZN9grpc_core12_GLOBAL__N_110JsonReader13StringAddCharEj(ptr noundef nonnull align 8 dereferenceable(216) %this, i32 noundef %or36)
  br i1 %call45, label %land.lhs.true46, label %return

land.lhs.true46:                                  ; preds = %land.lhs.true44
  %call47 = tail call fastcc noundef zeroext i1 @_ZN9grpc_core12_GLOBAL__N_110JsonReader13StringAddCharEj(ptr noundef nonnull align 8 dereferenceable(216) %this, i32 noundef %or40)
  br i1 %call47, label %return.sink.split, label %return

return.sink.split:                                ; preds = %land.lhs.true46, %land.lhs.true, %entry, %land.rhs
  %or42.sink = phi i32 [ %or5, %land.rhs ], [ %c, %entry ], [ %or20, %land.lhs.true ], [ %or42, %land.lhs.true46 ]
  %call49 = tail call fastcc noundef zeroext i1 @_ZN9grpc_core12_GLOBAL__N_110JsonReader13StringAddCharEj(ptr noundef nonnull align 8 dereferenceable(216) %this, i32 noundef %or42.sink)
  br label %return

return:                                           ; preds = %return.sink.split, %if.else26, %if.then28, %land.lhs.true44, %land.lhs.true46, %if.then10, %land.lhs.true, %if.then3
  %retval.0 = phi i1 [ false, %if.then3 ], [ false, %land.lhs.true ], [ false, %if.then10 ], [ false, %land.lhs.true46 ], [ false, %land.lhs.true44 ], [ false, %if.then28 ], [ false, %if.else26 ], [ %call49, %return.sink.split ]
  ret i1 %retval.0
}